; Function Attrs: mustprogress uwtable
define void @_ZN5folly10SSLContext8setupCtxEP10ssl_ctx_st(ptr noundef nonnull align 8 dereferenceable(304) %0, ptr noundef %1) local_unnamed_addr #2 align 2 personality ptr @__gxx_personality_v0 {
  %3 = tail call i64 @SSL_CTX_ctrl(ptr noundef %1, i32 noundef 44, i64 noundef 899, ptr noundef null)
  %4 = load atomic i8, ptr @_ZGVZN5folly12_GLOBAL__N_114getExDataIndexEvE5index acquire, align 8
  %5 = icmp eq i8 %4, 0
  br i1 %5, label %6, label %_ZN5folly12_GLOBAL__N_114getExDataIndexEv.exit, !prof !177

6:                                                ; preds = %2
  %7 = tail call i32 @__cxa_guard_acquire(ptr nonnull @_ZGVZN5folly12_GLOBAL__N_114getExDataIndexEvE5index) #29
  %.not.i = icmp eq i32 %7, 0
  br i1 %.not.i, label %_ZN5folly12_GLOBAL__N_114getExDataIndexEv.exit, label %8

8:                                                ; preds = %6
  %9 = invoke i32 @CRYPTO_get_ex_new_index(i32 noundef 1, i64 noundef 0, ptr noundef null, ptr noundef null, ptr noundef null, ptr noundef null)
          to label %10 unwind label %11

10:                                               ; preds = %8
  store i32 %9, ptr @_ZZN5folly12_GLOBAL__N_114getExDataIndexEvE5index, align 4, !tbaa !74
  tail call void @__cxa_guard_release(ptr nonnull @_ZGVZN5folly12_GLOBAL__N_114getExDataIndexEvE5index) #29
  br label %_ZN5folly12_GLOBAL__N_114getExDataIndexEv.exit

11:                                               ; preds = %8
  %12 = landingpad { ptr, i32 }
          cleanup
  tail call void @__cxa_guard_abort(ptr nonnull @_ZGVZN5folly12_GLOBAL__N_114getExDataIndexEvE5index) #29
  resume { ptr, i32 } %12

_ZN5folly12_GLOBAL__N_114getExDataIndexEv.exit:   ; preds = %2, %6, %10
  %13 = load i32, ptr @_ZZN5folly12_GLOBAL__N_114getExDataIndexEvE5index, align 4, !tbaa !74
  %14 = tail call i32 @SSL_CTX_set_ex_data(ptr noundef %1, i32 noundef %13, ptr noundef nonnull %0)
  tail call void @SSL_CTX_sess_set_new_cb(ptr noundef %1, ptr noundef nonnull @_ZN5folly10SSLContext18newSessionCallbackEP6ssl_stP14ssl_session_st)
  ret void
}